; Function Attrs: mustprogress uwtable
define internal fastcc void @_ZL23cm_archive_error_stringB5cxx11P7archive(ptr dead_on_unwind noalias nonnull writable align 8 %0, ptr noundef %1) unnamed_addr #3 personality ptr @__gxx_personality_v0 {
  %3 = alloca %"class.std::allocator", align 1
  %4 = tail call ptr @archive_error_string(ptr noundef %1)
  %.not = icmp eq ptr %4, null
  %5 = select i1 %.not, ptr @.str.41, ptr %4
  call void @_ZNSaIcEC1Ev(ptr noundef nonnull align 1 dereferenceable(1) %3) #14
  %6 = invoke noundef ptr @_ZNSt7__cxx1112basic_stringIcSt11char_traitsIcESaIcEE13_M_local_dataEv(ptr noundef nonnull align 8 dereferenceable(32) %0)
          to label %.noexc unwind label %11

.noexc:                                           ; preds = %2
  invoke void @_ZNSt7__cxx1112basic_stringIcSt11char_traitsIcESaIcEE12_Alloc_hiderC1EPcRKS3_(ptr noundef nonnull align 8 dereferenceable(32) %0, ptr noundef %6, ptr noundef nonnull align 1 dereferenceable(1) %3)
          to label %.noexc4 unwind label %11

.noexc4:                                          ; preds = %.noexc
  %7 = call noundef i64 @strlen(ptr noundef nonnull dereferenceable(1) %5) #14
  %8 = getelementptr inbounds i8, ptr %5, i64 %7
  invoke void @_ZNSt7__cxx1112basic_stringIcSt11char_traitsIcESaIcEE12_M_constructIPKcEEvT_S8_St20forward_iterator_tag(ptr noundef nonnull align 8 dereferenceable(32) %0, ptr noundef nonnull %5, ptr noundef nonnull %8)
          to label %_ZNSt7__cxx1112basic_stringIcSt11char_traitsIcESaIcEEC2IS3_EEPKcRKS3_.exit unwind label %9

9:                                                ; preds = %.noexc4
  %10 = landingpad { ptr, i32 }
          cleanup
  call void @_ZNSaIcED2Ev(ptr noundef nonnull align 8 dereferenceable(32) %0) #14
  br label %.body

_ZNSt7__cxx1112basic_stringIcSt11char_traitsIcESaIcEEC2IS3_EEPKcRKS3_.exit: ; preds = %.noexc4
  call void @_ZNSaIcED1Ev(ptr noundef nonnull align 1 dereferenceable(1) %3) #14
  ret void

11:                                               ; preds = %.noexc, %2
  %12 = landingpad { ptr, i32 }
          cleanup
  br label %.body

.body:                                            ; preds = %9, %11
  %eh.lpad-body = phi { ptr, i32 } [ %12, %11 ], [ %10, %9 ]
  call void @_ZNSaIcED1Ev(ptr noundef nonnull align 1 dereferenceable(1) %3) #14
  resume { ptr, i32 } %eh.lpad-body
}